target datalayout = "e-m:e-p270:32:32-p271:32:32-p272:64:64-i64:64-i128:128-f80:128-n8:16:32:64-S128"
target triple = "x86_64-pc-linux-gnu"

%struct.CodedBitstreamContext = type { ptr, ptr, ptr, ptr, i32, i32, i32, ptr, ptr, ptr, ptr, i64 }
%struct.VP9RawFrameHeader = type { i8, i8, i8, i8, i8, i8, i8, i8, i8, i8, i8, i8, i8, i8, i8, i8, [3 x i8], [4 x i8], i8, i8, i8, i8, [3 x i8], i16, i16, i8, i16, i16, i8, i8, i8, i8, i8, i8, [4 x i8], [4 x i8], [2 x i8], [2 x i8], i8, i8, i8, i8, i8, i8, [7 x i8], i8, [3 x i8], i8, i8, [8 x [4 x i8]], [8 x [4 x i8]], [8 x [4 x i8]], i8, i8, i16 }
%struct.CodedBitstreamVP9Context = type { i32, i16, i16, i16, i16, i32, i32, i8, i8, i32, [8 x %struct.VP9ReferenceFrameState] }
%struct.VP9ReferenceFrameState = type { i32, i32, i32, i32, i32 }

@.str.19 = private unnamed_addr constant [14 x i8] c"reserved_zero\00", align 1
@.str.39 = private unnamed_addr constant [18 x i8] c"ten_or_twelve_bit\00", align 1
@.str.40 = private unnamed_addr constant [12 x i8] c"color_space\00", align 1
@.str.41 = private unnamed_addr constant [12 x i8] c"color_range\00", align 1
@.str.42 = private unnamed_addr constant [14 x i8] c"subsampling_x\00", align 1
@.str.43 = private unnamed_addr constant [14 x i8] c"subsampling_y\00", align 1

; Function Attrs: nounwind uwtable
define internal i32 @cbs_vp9_read_color_config(ptr noundef %0, ptr noundef %1, ptr noundef %2, i32 noundef %3) #0 {
  %5 = alloca i32, align 4
  %6 = alloca ptr, align 8
  %7 = alloca ptr, align 8
  %8 = alloca ptr, align 8
  %9 = alloca i32, align 4
  %10 = alloca ptr, align 8
  %11 = alloca i32, align 4
  %12 = alloca i32, align 4
  %13 = alloca i32, align 4
  %14 = alloca i32, align 4
  %15 = alloca i32, align 4
  %16 = alloca i32, align 4
  %17 = alloca i32, align 4
  %18 = alloca i32, align 4
  %19 = alloca i32, align 4
  store ptr %0, ptr %6, align 8, !tbaa !4
  store ptr %1, ptr %7, align 8, !tbaa !62
  store ptr %2, ptr %8, align 8, !tbaa !79
  store i32 %3, ptr %9, align 4, !tbaa !11
  call void @llvm.lifetime.start.p0(i64 8, ptr %10) #8
  %20 = load ptr, ptr %6, align 8, !tbaa !4
  %21 = getelementptr inbounds nuw %struct.CodedBitstreamContext, ptr %20, i32 0, i32 2
  %22 = load ptr, ptr %21, align 8, !tbaa !59
  store ptr %22, ptr %10, align 8, !tbaa !60
  call void @llvm.lifetime.start.p0(i64 4, ptr %11) #8
  %23 = load i32, ptr %9, align 4, !tbaa !11
  %24 = icmp sge i32 %23, 2
  br i1 %24, label %25, label %55

25:                                               ; preds = %4
  br label %26

26:                                               ; preds = %25
  call void @llvm.lifetime.start.p0(i64 4, ptr %12) #8
  br label %27

27:                                               ; preds = %26
  %28 = load ptr, ptr %6, align 8, !tbaa !4
  %29 = load ptr, ptr %7, align 8, !tbaa !62
  %30 = call i32 @ff_cbs_read_simple_unsigned(ptr noundef %28, ptr noundef %29, i32 noundef 1, ptr noundef @.str.39, ptr noundef %12)
  store i32 %30, ptr %11, align 4, !tbaa !11
  %31 = load i32, ptr %11, align 4, !tbaa !11
  %32 = icmp slt i32 %31, 0
  br i1 %32, label %33, label %35

33:                                               ; preds = %27
  %34 = load i32, ptr %11, align 4, !tbaa !11
  store i32 %34, ptr %5, align 4
  store i32 1, ptr %13, align 4
  br label %42

35:                                               ; preds = %27
  br label %36

36:                                               ; preds = %35
  br label %37

37:                                               ; preds = %36
  %38 = load i32, ptr %12, align 4, !tbaa !11
  %39 = trunc i32 %38 to i8
  %40 = load ptr, ptr %8, align 8, !tbaa !79
  %41 = getelementptr inbounds nuw %struct.VP9RawFrameHeader, ptr %40, i32 0, i32 8
  store i8 %39, ptr %41, align 2, !tbaa !120
  store i32 0, ptr %13, align 4
  br label %42

42:                                               ; preds = %37, %33
  call void @llvm.lifetime.end.p0(i64 4, ptr %12) #8
  %43 = load i32, ptr %13, align 4
  switch i32 %43, label %235 [
    i32 0, label %44
  ]

44:                                               ; preds = %42
  br label %45

45:                                               ; preds = %44
  br label %46

46:                                               ; preds = %45
  %47 = load ptr, ptr %8, align 8, !tbaa !79
  %48 = getelementptr inbounds nuw %struct.VP9RawFrameHeader, ptr %47, i32 0, i32 8
  %49 = load i8, ptr %48, align 2, !tbaa !120
  %50 = zext i8 %49 to i32
  %51 = icmp ne i32 %50, 0
  %52 = select i1 %51, i32 12, i32 10
  %53 = load ptr, ptr %10, align 8, !tbaa !60
  %54 = getelementptr inbounds nuw %struct.CodedBitstreamVP9Context, ptr %53, i32 0, i32 9
  store i32 %52, ptr %54, align 4, !tbaa !99
  br label %58

55:                                               ; preds = %4
  %56 = load ptr, ptr %10, align 8, !tbaa !60
  %57 = getelementptr inbounds nuw %struct.CodedBitstreamVP9Context, ptr %56, i32 0, i32 9
  store i32 8, ptr %57, align 4, !tbaa !99
  br label %58

58:                                               ; preds = %55, %46
  br label %59

59:                                               ; preds = %58
  call void @llvm.lifetime.start.p0(i64 4, ptr %14) #8
  br label %60

60:                                               ; preds = %59
  %61 = load ptr, ptr %6, align 8, !tbaa !4
  %62 = load ptr, ptr %7, align 8, !tbaa !62
  %63 = call i32 @ff_cbs_read_simple_unsigned(ptr noundef %61, ptr noundef %62, i32 noundef 3, ptr noundef @.str.40, ptr noundef %14)
  store i32 %63, ptr %11, align 4, !tbaa !11
  %64 = load i32, ptr %11, align 4, !tbaa !11
  %65 = icmp slt i32 %64, 0
  br i1 %65, label %66, label %68

66:                                               ; preds = %60
  %67 = load i32, ptr %11, align 4, !tbaa !11
  store i32 %67, ptr %5, align 4
  store i32 1, ptr %13, align 4
  br label %75

68:                                               ; preds = %60
  br label %69

69:                                               ; preds = %68
  br label %70

70:                                               ; preds = %69
  %71 = load i32, ptr %14, align 4, !tbaa !11
  %72 = trunc i32 %71 to i8
  %73 = load ptr, ptr %8, align 8, !tbaa !79
  %74 = getelementptr inbounds nuw %struct.VP9RawFrameHeader, ptr %73, i32 0, i32 9
  store i8 %72, ptr %74, align 1, !tbaa !96
  store i32 0, ptr %13, align 4
  br label %75

75:                                               ; preds = %70, %66
  call void @llvm.lifetime.end.p0(i64 4, ptr %14) #8
  %76 = load i32, ptr %13, align 4
  switch i32 %76, label %235 [
    i32 0, label %77
  ]

77:                                               ; preds = %75
  br label %78

78:                                               ; preds = %77
  br label %79

79:                                               ; preds = %78
  %80 = load ptr, ptr %8, align 8, !tbaa !79
  %81 = getelementptr inbounds nuw %struct.VP9RawFrameHeader, ptr %80, i32 0, i32 9
  %82 = load i8, ptr %81, align 1, !tbaa !96
  %83 = zext i8 %82 to i32
  %84 = icmp ne i32 %83, 7
  br i1 %84, label %85, label %184

85:                                               ; preds = %79
  br label %86

86:                                               ; preds = %85
  call void @llvm.lifetime.start.p0(i64 4, ptr %15) #8
  br label %87

87:                                               ; preds = %86
  %88 = load ptr, ptr %6, align 8, !tbaa !4
  %89 = load ptr, ptr %7, align 8, !tbaa !62
  %90 = call i32 @ff_cbs_read_simple_unsigned(ptr noundef %88, ptr noundef %89, i32 noundef 1, ptr noundef @.str.41, ptr noundef %15)
  store i32 %90, ptr %11, align 4, !tbaa !11
  %91 = load i32, ptr %11, align 4, !tbaa !11
  %92 = icmp slt i32 %91, 0
  br i1 %92, label %93, label %95

93:                                               ; preds = %87
  %94 = load i32, ptr %11, align 4, !tbaa !11
  store i32 %94, ptr %5, align 4
  store i32 1, ptr %13, align 4
  br label %102

95:                                               ; preds = %87
  br label %96

96:                                               ; preds = %95
  br label %97

97:                                               ; preds = %96
  %98 = load i32, ptr %15, align 4, !tbaa !11
  %99 = trunc i32 %98 to i8
  %100 = load ptr, ptr %8, align 8, !tbaa !79
  %101 = getelementptr inbounds nuw %struct.VP9RawFrameHeader, ptr %100, i32 0, i32 10
  store i8 %99, ptr %101, align 2, !tbaa !121
  store i32 0, ptr %13, align 4
  br label %102

102:                                              ; preds = %97, %93
  call void @llvm.lifetime.end.p0(i64 4, ptr %15) #8
  %103 = load i32, ptr %13, align 4
  switch i32 %103, label %235 [
    i32 0, label %104
  ]

104:                                              ; preds = %102
  br label %105

105:                                              ; preds = %104
  br label %106

106:                                              ; preds = %105
  %107 = load i32, ptr %9, align 4, !tbaa !11
  %108 = icmp eq i32 %107, 1
  br i1 %108, label %112, label %109

109:                                              ; preds = %106
  %110 = load i32, ptr %9, align 4, !tbaa !11
  %111 = icmp eq i32 %110, 3
  br i1 %111, label %112, label %172

112:                                              ; preds = %109, %106
  br label %113

113:                                              ; preds = %112
  call void @llvm.lifetime.start.p0(i64 4, ptr %16) #8
  br label %114

114:                                              ; preds = %113
  %115 = load ptr, ptr %6, align 8, !tbaa !4
  %116 = load ptr, ptr %7, align 8, !tbaa !62
  %117 = call i32 @ff_cbs_read_simple_unsigned(ptr noundef %115, ptr noundef %116, i32 noundef 1, ptr noundef @.str.42, ptr noundef %16)
  store i32 %117, ptr %11, align 4, !tbaa !11
  %118 = load i32, ptr %11, align 4, !tbaa !11
  %119 = icmp slt i32 %118, 0
  br i1 %119, label %120, label %122

120:                                              ; preds = %114
  %121 = load i32, ptr %11, align 4, !tbaa !11
  store i32 %121, ptr %5, align 4
  store i32 1, ptr %13, align 4
  br label %129

122:                                              ; preds = %114
  br label %123

123:                                              ; preds = %122
  br label %124

124:                                              ; preds = %123
  %125 = load i32, ptr %16, align 4, !tbaa !11
  %126 = trunc i32 %125 to i8
  %127 = load ptr, ptr %8, align 8, !tbaa !79
  %128 = getelementptr inbounds nuw %struct.VP9RawFrameHeader, ptr %127, i32 0, i32 11
  store i8 %126, ptr %128, align 1, !tbaa !97
  store i32 0, ptr %13, align 4
  br label %129

129:                                              ; preds = %124, %120
  call void @llvm.lifetime.end.p0(i64 4, ptr %16) #8
  %130 = load i32, ptr %13, align 4
  switch i32 %130, label %235 [
    i32 0, label %131
  ]

131:                                              ; preds = %129
  br label %132

132:                                              ; preds = %131
  br label %133

133:                                              ; preds = %132
  br label %134

134:                                              ; preds = %133
  call void @llvm.lifetime.start.p0(i64 4, ptr %17) #8
  br label %135

135:                                              ; preds = %134
  %136 = load ptr, ptr %6, align 8, !tbaa !4
  %137 = load ptr, ptr %7, align 8, !tbaa !62
  %138 = call i32 @ff_cbs_read_simple_unsigned(ptr noundef %136, ptr noundef %137, i32 noundef 1, ptr noundef @.str.43, ptr noundef %17)
  store i32 %138, ptr %11, align 4, !tbaa !11
  %139 = load i32, ptr %11, align 4, !tbaa !11
  %140 = icmp slt i32 %139, 0
  br i1 %140, label %141, label %143

141:                                              ; preds = %135
  %142 = load i32, ptr %11, align 4, !tbaa !11
  store i32 %142, ptr %5, align 4
  store i32 1, ptr %13, align 4
  br label %150

143:                                              ; preds = %135
  br label %144

144:                                              ; preds = %143
  br label %145

145:                                              ; preds = %144
  %146 = load i32, ptr %17, align 4, !tbaa !11
  %147 = trunc i32 %146 to i8
  %148 = load ptr, ptr %8, align 8, !tbaa !79
  %149 = getelementptr inbounds nuw %struct.VP9RawFrameHeader, ptr %148, i32 0, i32 12
  store i8 %147, ptr %149, align 2, !tbaa !98
  store i32 0, ptr %13, align 4
  br label %150

150:                                              ; preds = %145, %141
  call void @llvm.lifetime.end.p0(i64 4, ptr %17) #8
  %151 = load i32, ptr %13, align 4
  switch i32 %151, label %235 [
    i32 0, label %152
  ]

152:                                              ; preds = %150
  br label %153

153:                                              ; preds = %152
  br label %154

154:                                              ; preds = %153
  br label %155

155:                                              ; preds = %154
  call void @llvm.lifetime.start.p0(i64 4, ptr %18) #8
  br label %156

156:                                              ; preds = %155
  %157 = load ptr, ptr %6, align 8, !tbaa !4
  %158 = load ptr, ptr %7, align 8, !tbaa !62
  %159 = call i32 @ff_cbs_read_unsigned(ptr noundef %157, ptr noundef %158, i32 noundef 1, ptr noundef @.str.19, ptr noundef null, ptr noundef %18, i32 noundef 0, i32 noundef 0)
  store i32 %159, ptr %11, align 4, !tbaa !11
  %160 = load i32, ptr %11, align 4, !tbaa !11
  %161 = icmp slt i32 %160, 0
  br i1 %161, label %162, label %164

162:                                              ; preds = %156
  %163 = load i32, ptr %11, align 4, !tbaa !11
  store i32 %163, ptr %5, align 4
  store i32 1, ptr %13, align 4
  br label %167

164:                                              ; preds = %156
  br label %165

165:                                              ; preds = %164
  br label %166

166:                                              ; preds = %165
  store i32 0, ptr %13, align 4
  br label %167

167:                                              ; preds = %166, %162
  call void @llvm.lifetime.end.p0(i64 4, ptr %18) #8
  %168 = load i32, ptr %13, align 4
  switch i32 %168, label %235 [
    i32 0, label %169
  ]

169:                                              ; preds = %167
  br label %170

170:                                              ; preds = %169
  br label %171

171:                                              ; preds = %170
  br label %183

172:                                              ; preds = %109
  br label %173

173:                                              ; preds = %172
  %174 = load ptr, ptr %8, align 8, !tbaa !79
  %175 = getelementptr inbounds nuw %struct.VP9RawFrameHeader, ptr %174, i32 0, i32 11
  store i8 1, ptr %175, align 1, !tbaa !97
  br label %176

176:                                              ; preds = %173
  br label %177

177:                                              ; preds = %176
  br label %178

178:                                              ; preds = %177
  %179 = load ptr, ptr %8, align 8, !tbaa !79
  %180 = getelementptr inbounds nuw %struct.VP9RawFrameHeader, ptr %179, i32 0, i32 12
  store i8 1, ptr %180, align 2, !tbaa !98
  br label %181

181:                                              ; preds = %178
  br label %182

182:                                              ; preds = %181
  br label %183

183:                                              ; preds = %182, %171
  br label %224

184:                                              ; preds = %79
  br label %185

185:                                              ; preds = %184
  %186 = load ptr, ptr %8, align 8, !tbaa !79
  %187 = getelementptr inbounds nuw %struct.VP9RawFrameHeader, ptr %186, i32 0, i32 10
  store i8 1, ptr %187, align 2, !tbaa !121
  br label %188

188:                                              ; preds = %185
  br label %189

189:                                              ; preds = %188
  %190 = load i32, ptr %9, align 4, !tbaa !11
  %191 = icmp eq i32 %190, 1
  br i1 %191, label %195, label %192

192:                                              ; preds = %189
  %193 = load i32, ptr %9, align 4, !tbaa !11
  %194 = icmp eq i32 %193, 3
  br i1 %194, label %195, label %223

195:                                              ; preds = %192, %189
  br label %196

196:                                              ; preds = %195
  %197 = load ptr, ptr %8, align 8, !tbaa !79
  %198 = getelementptr inbounds nuw %struct.VP9RawFrameHeader, ptr %197, i32 0, i32 11
  store i8 0, ptr %198, align 1, !tbaa !97
  br label %199

199:                                              ; preds = %196
  br label %200

200:                                              ; preds = %199
  br label %201

201:                                              ; preds = %200
  %202 = load ptr, ptr %8, align 8, !tbaa !79
  %203 = getelementptr inbounds nuw %struct.VP9RawFrameHeader, ptr %202, i32 0, i32 12
  store i8 0, ptr %203, align 2, !tbaa !98
  br label %204

204:                                              ; preds = %201
  br label %205

205:                                              ; preds = %204
  br label %206

206:                                              ; preds = %205
  call void @llvm.lifetime.start.p0(i64 4, ptr %19) #8
  br label %207

207:                                              ; preds = %206
  %208 = load ptr, ptr %6, align 8, !tbaa !4
  %209 = load ptr, ptr %7, align 8, !tbaa !62
  %210 = call i32 @ff_cbs_read_unsigned(ptr noundef %208, ptr noundef %209, i32 noundef 1, ptr noundef @.str.19, ptr noundef null, ptr noundef %19, i32 noundef 0, i32 noundef 0)
  store i32 %210, ptr %11, align 4, !tbaa !11
  %211 = load i32, ptr %11, align 4, !tbaa !11
  %212 = icmp slt i32 %211, 0
  br i1 %212, label %213, label %215

213:                                              ; preds = %207
  %214 = load i32, ptr %11, align 4, !tbaa !11
  store i32 %214, ptr %5, align 4
  store i32 1, ptr %13, align 4
  br label %218

215:                                              ; preds = %207
  br label %216

216:                                              ; preds = %215
  br label %217

217:                                              ; preds = %216
  store i32 0, ptr %13, align 4
  br label %218

218:                                              ; preds = %217, %213
  call void @llvm.lifetime.end.p0(i64 4, ptr %19) #8
  %219 = load i32, ptr %13, align 4
  switch i32 %219, label %235 [
    i32 0, label %220
  ]

220:                                              ; preds = %218
  br label %221

221:                                              ; preds = %220
  br label %222

222:                                              ; preds = %221
  br label %223

223:                                              ; preds = %222, %192
  br label %224

224:                                              ; preds = %223, %183
  %225 = load ptr, ptr %8, align 8, !tbaa !79
  %226 = getelementptr inbounds nuw %struct.VP9RawFrameHeader, ptr %225, i32 0, i32 11
  %227 = load i8, ptr %226, align 1, !tbaa !97
  %228 = load ptr, ptr %10, align 8, !tbaa !60
  %229 = getelementptr inbounds nuw %struct.CodedBitstreamVP9Context, ptr %228, i32 0, i32 7
  store i8 %227, ptr %229, align 4, !tbaa !100
  %230 = load ptr, ptr %8, align 8, !tbaa !79
  %231 = getelementptr inbounds nuw %struct.VP9RawFrameHeader, ptr %230, i32 0, i32 12
  %232 = load i8, ptr %231, align 2, !tbaa !98
  %233 = load ptr, ptr %10, align 8, !tbaa !60
  %234 = getelementptr inbounds nuw %struct.CodedBitstreamVP9Context, ptr %233, i32 0, i32 8
  store i8 %232, ptr %234, align 1, !tbaa !101
  store i32 0, ptr %5, align 4
  store i32 1, ptr %13, align 4
  br label %235

235:                                              ; preds = %224, %218, %167, %150, %129, %102, %75, %42
  call void @llvm.lifetime.end.p0(i64 4, ptr %11) #8
  call void @llvm.lifetime.end.p0(i64 8, ptr %10) #8
  %236 = load i32, ptr %5, align 4
  ret i32 %236
}