; Function Attrs: nounwind uwtable
define internal fastcc range(i32 -2147483648, 1) i32 @cbs_vp9_read_color_config(ptr noundef %0, ptr noundef nonnull %1, ptr noundef captures(none) %2, i32 noundef %3) unnamed_addr #0 {
  %5 = alloca i32, align 4
  %6 = alloca i32, align 4
  %7 = alloca i32, align 4
  %8 = alloca i32, align 4
  %9 = alloca i32, align 4
  %10 = alloca i32, align 4
  %11 = alloca i32, align 4
  %12 = getelementptr inbounds nuw i8, ptr %0, i64 16
  %13 = load ptr, ptr %12, align 8, !tbaa !41
  %14 = icmp sgt i32 %3, 1
  br i1 %14, label %15, label %23

15:                                               ; preds = %4
  call void @llvm.lifetime.start.p0(i64 4, ptr nonnull %5) #8
  %16 = call i32 @ff_cbs_read_simple_unsigned(ptr noundef nonnull %0, ptr noundef nonnull %1, i32 noundef 1, ptr noundef nonnull @.str.39, ptr noundef nonnull %5) #8
  %17 = icmp sgt i32 %16, -1
  br i1 %17, label %18, label %.critedge

18:                                               ; preds = %15
  %19 = load i32, ptr %5, align 4, !tbaa !22
  %20 = trunc i32 %19 to i8
  %21 = getelementptr inbounds nuw i8, ptr %2, i64 8
  store i8 %20, ptr %21, align 2, !tbaa !103
  call void @llvm.lifetime.end.p0(i64 4, ptr nonnull %5) #8
  %.not = icmp eq i8 %20, 0
  %22 = select i1 %.not, i32 10, i32 12
  br label %23

23:                                               ; preds = %4, %18
  %.sink = phi i32 [ %22, %18 ], [ 8, %4 ]
  %24 = getelementptr inbounds nuw i8, ptr %13, i64 24
  store i32 %.sink, ptr %24, align 4, !tbaa !62
  call void @llvm.lifetime.start.p0(i64 4, ptr nonnull %6) #8
  %25 = call i32 @ff_cbs_read_simple_unsigned(ptr noundef nonnull %0, ptr noundef nonnull %1, i32 noundef 3, ptr noundef nonnull @.str.40, ptr noundef nonnull %6) #8
  %26 = icmp sgt i32 %25, -1
  br i1 %26, label %28, label %27

27:                                               ; preds = %23
  call void @llvm.lifetime.end.p0(i64 4, ptr nonnull %6) #8
  br label %76

28:                                               ; preds = %23
  %29 = load i32, ptr %6, align 4, !tbaa !22
  %30 = trunc i32 %29 to i8
  %31 = getelementptr inbounds nuw i8, ptr %2, i64 9
  store i8 %30, ptr %31, align 1, !tbaa !59
  call void @llvm.lifetime.end.p0(i64 4, ptr nonnull %6) #8
  %.not81 = icmp eq i8 %30, 7
  br i1 %.not81, label %61, label %32

32:                                               ; preds = %28
  call void @llvm.lifetime.start.p0(i64 4, ptr nonnull %7) #8
  %33 = call i32 @ff_cbs_read_simple_unsigned(ptr noundef nonnull %0, ptr noundef nonnull %1, i32 noundef 1, ptr noundef nonnull @.str.41, ptr noundef nonnull %7) #8
  %34 = icmp sgt i32 %33, -1
  br i1 %34, label %36, label %35

35:                                               ; preds = %32
  call void @llvm.lifetime.end.p0(i64 4, ptr nonnull %7) #8
  br label %76

36:                                               ; preds = %32
  %37 = load i32, ptr %7, align 4, !tbaa !22
  %38 = trunc i32 %37 to i8
  %39 = getelementptr inbounds nuw i8, ptr %2, i64 10
  store i8 %38, ptr %39, align 2, !tbaa !104
  call void @llvm.lifetime.end.p0(i64 4, ptr nonnull %7) #8
  %40 = and i32 %3, -3
  %or.cond = icmp eq i32 %40, 1
  br i1 %or.cond, label %41, label %58

41:                                               ; preds = %36
  call void @llvm.lifetime.start.p0(i64 4, ptr nonnull %8) #8
  %42 = call i32 @ff_cbs_read_simple_unsigned(ptr noundef nonnull %0, ptr noundef nonnull %1, i32 noundef 1, ptr noundef nonnull @.str.42, ptr noundef nonnull %8) #8
  %43 = icmp sgt i32 %42, -1
  br i1 %43, label %45, label %44

44:                                               ; preds = %41
  call void @llvm.lifetime.end.p0(i64 4, ptr nonnull %8) #8
  br label %76

45:                                               ; preds = %41
  %46 = load i32, ptr %8, align 4, !tbaa !22
  %47 = trunc i32 %46 to i8
  %48 = getelementptr inbounds nuw i8, ptr %2, i64 11
  store i8 %47, ptr %48, align 1, !tbaa !60
  call void @llvm.lifetime.end.p0(i64 4, ptr nonnull %8) #8
  call void @llvm.lifetime.start.p0(i64 4, ptr nonnull %9) #8
  %49 = call i32 @ff_cbs_read_simple_unsigned(ptr noundef nonnull %0, ptr noundef nonnull %1, i32 noundef 1, ptr noundef nonnull @.str.43, ptr noundef nonnull %9) #8
  %50 = icmp sgt i32 %49, -1
  br i1 %50, label %52, label %51

51:                                               ; preds = %45
  call void @llvm.lifetime.end.p0(i64 4, ptr nonnull %9) #8
  br label %76

52:                                               ; preds = %45
  %53 = load i32, ptr %9, align 4, !tbaa !22
  %54 = trunc i32 %53 to i8
  %55 = getelementptr inbounds nuw i8, ptr %2, i64 12
  store i8 %54, ptr %55, align 2, !tbaa !61
  call void @llvm.lifetime.end.p0(i64 4, ptr nonnull %9) #8
  call void @llvm.lifetime.start.p0(i64 4, ptr nonnull %10) #8
  %56 = call i32 @ff_cbs_read_unsigned(ptr noundef nonnull %0, ptr noundef nonnull %1, i32 noundef 1, ptr noundef nonnull @.str.19, ptr noundef null, ptr noundef nonnull %10, i32 noundef 0, i32 noundef 0) #8
  %57 = icmp sgt i32 %56, -1
  call void @llvm.lifetime.end.p0(i64 4, ptr nonnull %10) #8
  br i1 %57, label %69, label %76

58:                                               ; preds = %36
  %59 = getelementptr inbounds nuw i8, ptr %2, i64 11
  store i8 1, ptr %59, align 1, !tbaa !60
  %60 = getelementptr inbounds nuw i8, ptr %2, i64 12
  store i8 1, ptr %60, align 2, !tbaa !61
  br label %69

61:                                               ; preds = %28
  %62 = getelementptr inbounds nuw i8, ptr %2, i64 10
  store i8 1, ptr %62, align 2, !tbaa !104
  %63 = and i32 %3, -3
  %or.cond9 = icmp eq i32 %63, 1
  br i1 %or.cond9, label %64, label %69

64:                                               ; preds = %61
  %65 = getelementptr inbounds nuw i8, ptr %2, i64 11
  store i8 0, ptr %65, align 1, !tbaa !60
  %66 = getelementptr inbounds nuw i8, ptr %2, i64 12
  store i8 0, ptr %66, align 2, !tbaa !61
  call void @llvm.lifetime.start.p0(i64 4, ptr nonnull %11) #8
  %67 = call i32 @ff_cbs_read_unsigned(ptr noundef nonnull %0, ptr noundef nonnull %1, i32 noundef 1, ptr noundef nonnull @.str.19, ptr noundef null, ptr noundef nonnull %11, i32 noundef 0, i32 noundef 0) #8
  %68 = icmp sgt i32 %67, -1
  call void @llvm.lifetime.end.p0(i64 4, ptr nonnull %11) #8
  br i1 %68, label %69, label %76

69:                                               ; preds = %61, %64, %58, %52
  %70 = getelementptr inbounds nuw i8, ptr %2, i64 11
  %71 = load i8, ptr %70, align 1, !tbaa !60
  %72 = getelementptr inbounds nuw i8, ptr %13, i64 20
  store i8 %71, ptr %72, align 4, !tbaa !63
  %73 = getelementptr inbounds nuw i8, ptr %2, i64 12
  %74 = load i8, ptr %73, align 2, !tbaa !61
  %75 = getelementptr inbounds nuw i8, ptr %13, i64 21
  store i8 %74, ptr %75, align 1, !tbaa !64
  br label %76

.critedge:                                        ; preds = %15
  call void @llvm.lifetime.end.p0(i64 4, ptr nonnull %5) #8
  br label %76

76:                                               ; preds = %51, %44, %35, %27, %.critedge, %52, %64, %69
  %.169 = phi i32 [ 0, %69 ], [ %56, %52 ], [ %49, %51 ], [ %42, %44 ], [ %33, %35 ], [ %67, %64 ], [ %25, %27 ], [ %16, %.critedge ]
  ret i32 %.169
}